; ModuleID = 'source-C-CXX/25/392.c'
source_filename = "source-C-CXX/25/392.c"
target datalayout = "e-m:e-p270:32:32-p271:32:32-p272:64:64-i64:64-f80:128-n8:16:32:64-S128"
target triple = "x86_64-pc-linux-gnu"

%struct._IO_FILE = type { i32, i8*, i8*, i8*, i8*, i8*, i8*, i8*, i8*, i8*, i8*, i8*, %struct._IO_marker*, %struct._IO_FILE*, i32, i32, i64, i16, i8, [1 x i8], i8*, i64, %struct._IO_codecvt*, %struct._IO_wide_data*, %struct._IO_FILE*, i8*, i64, i32, [20 x i8] }
%struct._IO_marker = type opaque
%struct._IO_codecvt = type opaque
%struct._IO_wide_data = type opaque

@stdin = external local_unnamed_addr global %struct._IO_FILE*, align 8

; Function Attrs: nounwind sspstrong uwtable
define dso_local i32 @main() local_unnamed_addr #0 {
  %1 = alloca [10000 x i8], align 16
  %2 = alloca [10000 x i8], align 16
  %3 = getelementptr inbounds [10000 x i8], [10000 x i8]* %1, i64 0, i64 0
  call void @llvm.lifetime.start.p0i8(i64 10000, i8* nonnull %3) #5
  %4 = getelementptr inbounds [10000 x i8], [10000 x i8]* %2, i64 0, i64 0
  call void @llvm.lifetime.start.p0i8(i64 10000, i8* nonnull %4) #5
  %5 = call i32 (i8*, ...) bitcast (i32 (...)* @gets to i32 (i8*, ...)*)(i8* nonnull %3) #5
  %6 = call i64 @strlen(i8* noundef nonnull %3) #6
  %7 = trunc i64 %6 to i32
  %8 = load i8, i8* %3, align 16, !tbaa !5
  store i8 %8, i8* %4, align 16, !tbaa !5
  %9 = icmp sgt i32 %7, 1
  br i1 %9, label %10, label %55

10:                                               ; preds = %0
  %11 = and i64 %6, 4294967295
  %12 = add nsw i64 %11, -1
  %13 = and i64 %12, 1
  %14 = icmp eq i64 %11, 2
  br i1 %14, label %39, label %15

15:                                               ; preds = %10
  %16 = and i64 %12, -2
  br label %17

17:                                               ; preds = %69, %15
  %18 = phi i64 [ 1, %15 ], [ %71, %69 ]
  %19 = phi i32 [ 1, %15 ], [ %70, %69 ]
  %20 = phi i64 [ %16, %15 ], [ %72, %69 ]
  %21 = getelementptr inbounds [10000 x i8], [10000 x i8]* %1, i64 0, i64 %18
  %22 = load i8, i8* %21, align 1, !tbaa !5
  %23 = icmp eq i8 %22, 32
  br i1 %23, label %24, label %29

24:                                               ; preds = %17
  %25 = add nsw i64 %18, -1
  %26 = getelementptr inbounds [10000 x i8], [10000 x i8]* %1, i64 0, i64 %25
  %27 = load i8, i8* %26, align 1, !tbaa !5
  %28 = icmp eq i8 %27, 32
  br i1 %28, label %33, label %29

29:                                               ; preds = %24, %17
  %30 = sext i32 %19 to i64
  %31 = getelementptr inbounds [10000 x i8], [10000 x i8]* %2, i64 0, i64 %30
  store i8 %22, i8* %31, align 1, !tbaa !5
  %32 = add nsw i32 %19, 1
  br label %33

33:                                               ; preds = %29, %24
  %34 = phi i32 [ %19, %24 ], [ %32, %29 ]
  %35 = add nuw nsw i64 %18, 1
  %36 = getelementptr inbounds [10000 x i8], [10000 x i8]* %1, i64 0, i64 %35
  %37 = load i8, i8* %36, align 1, !tbaa !5
  %38 = icmp eq i8 %37, 32
  br i1 %38, label %61, label %65

39:                                               ; preds = %69, %10
  %40 = phi i64 [ 1, %10 ], [ %71, %69 ]
  %41 = phi i32 [ 1, %10 ], [ %70, %69 ]
  %42 = icmp eq i64 %13, 0
  br i1 %42, label %55, label %43

43:                                               ; preds = %39
  %44 = getelementptr inbounds [10000 x i8], [10000 x i8]* %1, i64 0, i64 %40
  %45 = load i8, i8* %44, align 1, !tbaa !5
  %46 = icmp eq i8 %45, 32
  br i1 %46, label %47, label %52

47:                                               ; preds = %43
  %48 = add nsw i64 %40, -1
  %49 = getelementptr inbounds [10000 x i8], [10000 x i8]* %1, i64 0, i64 %48
  %50 = load i8, i8* %49, align 1, !tbaa !5
  %51 = icmp eq i8 %50, 32
  br i1 %51, label %55, label %52

52:                                               ; preds = %47, %43
  %53 = sext i32 %41 to i64
  %54 = getelementptr inbounds [10000 x i8], [10000 x i8]* %2, i64 0, i64 %53
  store i8 %45, i8* %54, align 1, !tbaa !5
  br label %55

55:                                               ; preds = %39, %47, %52, %0
  %56 = call i32 @puts(i8* nonnull %4)
  %57 = load %struct._IO_FILE*, %struct._IO_FILE** @stdin, align 8, !tbaa !8
  %58 = call i32 @getc(%struct._IO_FILE* %57) #5
  %59 = load %struct._IO_FILE*, %struct._IO_FILE** @stdin, align 8, !tbaa !8
  %60 = call i32 @getc(%struct._IO_FILE* %59) #5
  call void @llvm.lifetime.end.p0i8(i64 10000, i8* nonnull %4) #5
  call void @llvm.lifetime.end.p0i8(i64 10000, i8* nonnull %3) #5
  ret i32 0

61:                                               ; preds = %33
  %62 = getelementptr inbounds [10000 x i8], [10000 x i8]* %1, i64 0, i64 %18
  %63 = load i8, i8* %62, align 1, !tbaa !5
  %64 = icmp eq i8 %63, 32
  br i1 %64, label %69, label %65

65:                                               ; preds = %61, %33
  %66 = sext i32 %34 to i64
  %67 = getelementptr inbounds [10000 x i8], [10000 x i8]* %2, i64 0, i64 %66
  store i8 %37, i8* %67, align 1, !tbaa !5
  %68 = add nsw i32 %34, 1
  br label %69

69:                                               ; preds = %65, %61
  %70 = phi i32 [ %34, %61 ], [ %68, %65 ]
  %71 = add nuw nsw i64 %18, 2
  %72 = add i64 %20, -2
  %73 = icmp eq i64 %72, 0
  br i1 %73, label %39, label %17, !llvm.loop !10
}

; Function Attrs: argmemonly mustprogress nofree nosync nounwind willreturn
declare void @llvm.lifetime.start.p0i8(i64 immarg, i8* nocapture) #1

declare i32 @gets(...) local_unnamed_addr #2

; Function Attrs: argmemonly mustprogress nofree nounwind readonly willreturn
declare i64 @strlen(i8* nocapture) local_unnamed_addr #3

; Function Attrs: nofree nounwind
declare noundef i32 @puts(i8* nocapture noundef readonly) local_unnamed_addr #4

; Function Attrs: argmemonly mustprogress nofree nosync nounwind willreturn
declare void @llvm.lifetime.end.p0i8(i64 immarg, i8* nocapture) #1

; Function Attrs: nofree nounwind
declare noundef i32 @getc(%struct._IO_FILE* nocapture noundef) local_unnamed_addr #4


!llvm.module.flags = !{!0, !1, !2, !3}
!llvm.ident = !{!4}

!0 = !{i32 1, !"wchar_size", i32 4}
!1 = !{i32 7, !"PIC Level", i32 2}
!2 = !{i32 7, !"PIE Level", i32 2}
!3 = !{i32 7, !"uwtable", i32 1}
!4 = !{!"clang version 13.0.0"}
!5 = !{!6, !6, i64 0}
!6 = !{!"omnipotent char", !7, i64 0}
!7 = !{!"Simple C/C++ TBAA"}
!8 = !{!9, !9, i64 0}
!9 = !{!"any pointer", !6, i64 0}
!10 = distinct !{!10, !11}
!11 = !{!"llvm.loop.mustprogress"}
